Certificate:
    Data:
        Version: 3 (0x2)
        Serial Number:
            3e:d7:b2:e5:10:8b:ce:3a:f5:71:ac:97:55:4c:1c:2a
        Signature Algorithm: sha256WithRSAEncryption
        Issuer: CN=FlashTunnel
        Validity
            Not Before: May 29 00:35:44 2024 GMT
            Not After : Sep  1 00:35:44 2026 GMT
        Subject: CN=FlashTunnel
        Subject Public Key Info:
            Public Key Algorithm: rsaEncryption
                Public-Key: (2048 bit)
                Modulus:
                    00:a9:36:6c:2f:0f:00:47:60:10:8b:7f:67:8c:51:
                    64:9a:46:e2:bb:b4:7b:b5:f8:a9:58:9d:77:6a:7b:
                    0f:3e:5b:ea:52:da:0d:5a:e9:e3:ff:6b:ed:02:aa:
                    13:ce:32:ad:67:32:93:64:a9:fc:70:36:d9:92:69:
                    2a:53:4f:bb:20:68:19:fd:ce:86:63:fa:a9:d1:c9:
                    3e:69:04:06:4d:d3:44:ea:2b:3a:05:a1:a5:e8:46:
                    fa:58:a3:fd:dd:3d:aa:0c:60:fa:13:32:9a:15:a4:
                    68:9b:57:d6:30:d6:f2:80:a2:9c:76:c2:8f:38:e9:
                    4f:cc:30:52:db:1c:8c:26:53:a8:96:df:ff:70:e8:
                    f4:a1:eb:60:17:0d:87:fa:5f:03:40:1e:e0:13:34:
                    04:fd:25:45:cf:cd:8b:91:f4:cc:7a:ec:fb:2f:7b:
                    11:92:72:a4:ac:b7:61:98:10:c6:88:20:54:4f:0b:
                    14:ea:d4:04:94:a4:c0:31:7f:73:12:e0:30:c3:12:
                    88:0d:1c:6d:b9:72:1f:f3:d8:7f:cb:fd:69:f6:9a:
                    ea:4a:93:cc:7d:91:5d:b3:f5:eb:0f:c6:9d:c6:44:
                    fd:25:6e:12:46:63:ff:56:3c:04:82:f8:d4:bf:cd:
                    10:cc:6f:fc:98:39:8d:d8:61:f8:ef:1d:ff:56:a8:
                    36:13
                Exponent: 65537 (0x10001)
        X509v3 extensions:
            X509v3 Basic Constraints: 
                CA:FALSE
            X509v3 Subject Key Identifier: 
                67:40:E6:CF:FD:2D:A1:53:EB:C2:7C:C8:C1:D3:50:32:F6:87:D2:D4
            X509v3 Authority Key Identifier: 
                keyid:86:EC:83:16:A2:11:2C:BE:E9:DA:72:42:A0:33:7E:3C:01:42:1A:F9
                DirName:/CN=FlashTunnel
                serial:75:40:5A:87:AD:7D:B0:41:E9:1B:D1:0F:05:85:FC:F6:64:B6:FF:29
            X509v3 Extended Key Usage: 
                TLS Web Client Authentication
            X509v3 Key Usage: 
                Digital Signature
    Signature Algorithm: sha256WithRSAEncryption
    Signature Value:
        80:11:99:49:df:a6:92:db:1c:76:1c:85:c9:5e:3c:3f:35:f2:
        ab:79:45:77:eb:27:6a:d8:79:75:35:28:8d:94:dd:34:d7:ab:
        aa:03:76:db:7b:b5:a2:c6:07:f1:63:6e:90:3a:4e:d3:2d:a8:
        de:23:a3:5c:5b:a0:5a:34:36:7a:ae:88:d4:21:78:aa:e1:cc:
        d7:5e:d1:28:3e:2c:ec:0b:c5:10:da:a6:97:74:94:0b:85:ef:
        7d:e4:d5:88:d5:3f:52:c7:c6:6e:33:ac:19:bf:af:9c:c8:33:
        53:f1:5d:61:4a:aa:f0:5d:99:bb:de:5c:ca:62:d5:0f:af:e9:
        de:ea:61:67:d2:8d:9a:95:78:d8:8e:c6:9d:d5:04:28:ca:73:
        83:56:67:84:1c:6c:02:1f:3f:fb:0e:98:c9:41:00:26:64:6a:
        0c:56:4a:d7:06:0d:29:dd:b3:2d:08:2c:ae:e4:0c:c9:ba:79:
        bc:e1:2a:af:d8:38:95:9a:8b:86:0a:ab:d9:5f:b0:94:3e:3a:
        4c:a5:ea:3f:0f:a1:02:c5:a5:07:ea:31:26:e3:25:de:9d:4a:
        82:aa:25:aa:4d:f9:68:e9:62:bd:b7:25:cc:01:05:5b:31:4d:
        ef:5f:eb:78:fd:40:af:61:9a:9e:b2:fd:1b:fa:10:98:f1:07:
        7f:61:86:df
-----BEGIN CERTIFICATE-----
MIIDWTCCAkGgAwIBAgIQPtey5RCLzjr1cayXVUwcKjANBgkqhkiG9w0BAQsFADAW
MRQwEgYDVQQDDAtGbGFzaFR1bm5lbDAeFw0yNDA1MjkwMDM1NDRaFw0yNjA5MDEw
MDM1NDRaMBYxFDASBgNVBAMMC0ZsYXNoVHVubmVsMIIBIjANBgkqhkiG9w0BAQEF
AAOCAQ8AMIIBCgKCAQEAqTZsLw8AR2AQi39njFFkmkbiu7R7tfipWJ13ansPPlvq
UtoNWunj/2vtAqoTzjKtZzKTZKn8cDbZkmkqU0+7IGgZ/c6GY/qp0ck+aQQGTdNE
6is6BaGl6Eb6WKP93T2qDGD6EzKaFaRom1fWMNbygKKcdsKPOOlPzDBS2xyMJlOo
lt//cOj0oetgFw2H+l8DQB7gEzQE/SVFz82LkfTMeuz7L3sRknKkrLdhmBDGiCBU
TwsU6tQElKTAMX9zEuAwwxKIDRxtuXIf89h/y/1p9prqSpPMfZFds/XrD8adxkT9
JW4SRmP/VjwEgvjUv80QzG/8mDmN2GH47x3/Vqg2EwIDAQABo4GiMIGfMAkGA1Ud
EwQCMAAwHQYDVR0OBBYEFGdA5s/9LaFT68J8yMHTUDL2h9LUMFEGA1UdIwRKMEiA
FIbsgxaiESy+6dpyQqAzfjwBQhr5oRqkGDAWMRQwEgYDVQQDDAtGbGFzaFR1bm5l
bIIUdUBah619sEHpG9EPBYX89mS2/ykwEwYDVR0lBAwwCgYIKwYBBQUHAwIwCwYD
VR0PBAQDAgeAMA0GCSqGSIb3DQEBCwUAA4IBAQCAEZlJ36aS2xx2HIXJXjw/NfKr
eUV36ydq2Hl1NSiNlN0016uqA3bbe7WixgfxY26QOk7TLajeI6NcW6BaNDZ6rojU
IXiq4czXXtEoPizsC8UQ2qaXdJQLhe995NWI1T9Sx8ZuM6wZv6+cyDNT8V1hSqrw
XZm73lzKYtUPr+ne6mFn0o2alXjYjsad1QQoynODVmeEHGwCHz/7DpjJQQAmZGoM
VkrXBg0p3bMtCCyu5AzJunm84Sqv2DiVmouGCqvZX7CUPjpMpeo/D6ECxaUH6jEm
4yXenUqCqiWqTflo6WK9tyXMAQVbMU3vX+t4/UCvYZqesv0b+hCY8Qd/YYbf
-----END CERTIFICATE-----
